target datalayout = "e-m:e-p270:32:32-p271:32:32-p272:64:64-i64:64-i128:128-f80:128-n8:16:32:64-S128"
target triple = "x86_64-pc-linux-gnu"

%struct.cmsysProcess_s = type { ptr, i32, [3 x i32], [3 x i32], i32, [1024 x i8], ptr, i32, double, ptr, i32, i32, i32, i32, i32, %struct.kwsysProcessTime_s, %struct.kwsysProcessTime_s, i32, i32, %struct.fd_set, i32, i32, i32, [1025 x i8], ptr, ptr, ptr, ptr, ptr, i32, i32, i32, [2 x i32], [2 x i32], [2 x i32], i32, ptr }
%struct.kwsysProcessTime_s = type { i64, i64 }
%struct.fd_set = type { [16 x i64] }
%struct.kwsysProcessResults_s = type { i32, i32, i32, i32, [1025 x i8] }

; Function Attrs: nounwind uwtable
define dso_local i32 @cmsysProcess_GetExitCode(ptr noundef %0) #0 {
  %2 = alloca ptr, align 8
  store ptr %0, ptr %2, align 8, !tbaa !4
  %3 = load ptr, ptr %2, align 8, !tbaa !4
  %4 = icmp ne ptr %3, null
  br i1 %4, label %5, label %27

5:                                                ; preds = %1
  %6 = load ptr, ptr %2, align 8, !tbaa !4
  %7 = getelementptr inbounds nuw %struct.cmsysProcess_s, ptr %6, i32 0, i32 24
  %8 = load ptr, ptr %7, align 8, !tbaa !24
  %9 = icmp ne ptr %8, null
  br i1 %9, label %10, label %27

10:                                               ; preds = %5
  %11 = load ptr, ptr %2, align 8, !tbaa !4
  %12 = getelementptr inbounds nuw %struct.cmsysProcess_s, ptr %11, i32 0, i32 1
  %13 = load volatile i32, ptr %12, align 8, !tbaa !32
  %14 = icmp sgt i32 %13, 0
  br i1 %14, label %15, label %27

15:                                               ; preds = %10
  %16 = load ptr, ptr %2, align 8, !tbaa !4
  %17 = getelementptr inbounds nuw %struct.cmsysProcess_s, ptr %16, i32 0, i32 24
  %18 = load ptr, ptr %17, align 8, !tbaa !24
  %19 = load ptr, ptr %2, align 8, !tbaa !4
  %20 = getelementptr inbounds nuw %struct.cmsysProcess_s, ptr %19, i32 0, i32 1
  %21 = load volatile i32, ptr %20, align 8, !tbaa !32
  %22 = sub nsw i32 %21, 1
  %23 = sext i32 %22 to i64
  %24 = getelementptr inbounds %struct.kwsysProcessResults_s, ptr %18, i64 %23
  %25 = getelementptr inbounds nuw %struct.kwsysProcessResults_s, ptr %24, i32 0, i32 2
  %26 = load i32, ptr %25, align 4, !tbaa !33
  br label %28

27:                                               ; preds = %10, %5, %1
  br label %28

28:                                               ; preds = %27, %15
  %29 = phi i32 [ %26, %15 ], [ 0, %27 ]
  ret i32 %29
}